target datalayout = "e-m:e-p270:32:32-p271:32:32-p272:64:64-i64:64-i128:128-f80:128-n8:16:32:64-S128"
target triple = "x86_64-pc-linux-gnu"

%struct.uv_loop_s = type { ptr, i32, %struct.uv__queue, %union.anon, ptr, i32, i64, i32, %struct.uv__queue, %struct.uv__queue, ptr, i32, i32, %struct.uv__queue, %union.pthread_mutex_t, %struct.uv_async_s, %union.pthread_rwlock_t, ptr, %struct.uv__queue, %struct.uv__queue, %struct.uv__queue, %struct.uv__queue, %struct.uv__queue, ptr, %struct.uv__io_s, i32, %struct.anon, i64, i64, [2 x i32], %struct.uv__io_s, %struct.uv_signal_s, i32, %struct.uv__io_s, ptr, i32 }
%union.anon = type { ptr }
%union.pthread_mutex_t = type { %struct.__pthread_mutex_s }
%struct.__pthread_mutex_s = type { i32, i32, i32, i32, i32, i16, i16, %struct.__pthread_internal_list }
%struct.__pthread_internal_list = type { ptr, ptr }
%struct.uv_async_s = type { ptr, ptr, i32, ptr, %struct.uv__queue, %union.anon.0, ptr, i32, ptr, %struct.uv__queue, i32 }
%union.anon.0 = type { [4 x ptr] }
%union.pthread_rwlock_t = type { %struct.__pthread_rwlock_arch_t }
%struct.__pthread_rwlock_arch_t = type { i32, i32, i32, i32, i32, i32, i32, i32, i8, [7 x i8], i64, i32 }
%struct.uv__queue = type { ptr, ptr }
%struct.anon = type { ptr, i32 }
%struct.uv_signal_s = type { ptr, ptr, i32, ptr, %struct.uv__queue, %union.anon.1, ptr, i32, ptr, i32, %struct.anon.2, i32, i32 }
%union.anon.1 = type { [4 x ptr] }
%struct.anon.2 = type { ptr, ptr, ptr, i32 }
%struct.uv__io_s = type { ptr, %struct.uv__queue, %struct.uv__queue, i32, i32, i32 }
%struct.uv_handle_s = type { ptr, ptr, i32, ptr, %struct.uv__queue, %union.anon.3, ptr, i32 }
%union.anon.3 = type { [4 x ptr] }

; Function Attrs: inlinehint nounwind uwtable
define internal void @uv__queue_insert_tail(ptr noundef %0, ptr noundef %1) #3 {
  %3 = alloca ptr, align 8
  %4 = alloca ptr, align 8
  store ptr %0, ptr %3, align 8
  store ptr %1, ptr %4, align 8
  %5 = load ptr, ptr %3, align 8
  %6 = load ptr, ptr %4, align 8
  %7 = getelementptr inbounds nuw %struct.uv__queue, ptr %6, i32 0, i32 0
  store ptr %5, ptr %7, align 8
  %8 = load ptr, ptr %3, align 8
  %9 = getelementptr inbounds nuw %struct.uv__queue, ptr %8, i32 0, i32 1
  %10 = load ptr, ptr %9, align 8
  %11 = load ptr, ptr %4, align 8
  %12 = getelementptr inbounds nuw %struct.uv__queue, ptr %11, i32 0, i32 1
  store ptr %10, ptr %12, align 8
  %13 = load ptr, ptr %4, align 8
  %14 = load ptr, ptr %4, align 8
  %15 = getelementptr inbounds nuw %struct.uv__queue, ptr %14, i32 0, i32 1
  %16 = load ptr, ptr %15, align 8
  %17 = getelementptr inbounds nuw %struct.uv__queue, ptr %16, i32 0, i32 0
  store ptr %13, ptr %17, align 8
  %18 = load ptr, ptr %4, align 8
  %19 = load ptr, ptr %3, align 8
  %20 = getelementptr inbounds nuw %struct.uv__queue, ptr %19, i32 0, i32 1
  store ptr %18, ptr %20, align 8
  ret void
}

; Function Attrs: nounwind uwtable
define internal i32 @uv__signal_loop_once_init(ptr noundef %0) #0 {
  %2 = alloca i32, align 4
  %3 = alloca ptr, align 8
  %4 = alloca i32, align 4
  %5 = alloca i32, align 4
  store ptr %0, ptr %3, align 8
  call void @llvm.lifetime.start.p0(i64 4, ptr %4) #9
  %6 = load ptr, ptr %3, align 8
  %7 = getelementptr inbounds nuw %struct.uv_loop_s, ptr %6, i32 0, i32 29
  %8 = getelementptr inbounds [2 x i32], ptr %7, i64 0, i64 0
  %9 = load i32, ptr %8, align 8
  %10 = icmp ne i32 %9, -1
  br i1 %10, label %11, label %12

11:                                               ; preds = %1
  store i32 0, ptr %2, align 4
  store i32 1, ptr %5, align 4
  br label %31

12:                                               ; preds = %1
  %13 = load ptr, ptr %3, align 8
  %14 = getelementptr inbounds nuw %struct.uv_loop_s, ptr %13, i32 0, i32 29
  %15 = getelementptr inbounds [2 x i32], ptr %14, i64 0, i64 0
  %16 = call i32 @uv__make_pipe(ptr noundef %15, i32 noundef 64)
  store i32 %16, ptr %4, align 4
  %17 = load i32, ptr %4, align 4
  %18 = icmp ne i32 %17, 0
  br i1 %18, label %19, label %21

19:                                               ; preds = %12
  %20 = load i32, ptr %4, align 4
  store i32 %20, ptr %2, align 4
  store i32 1, ptr %5, align 4
  br label %31

21:                                               ; preds = %12
  %22 = load ptr, ptr %3, align 8
  %23 = getelementptr inbounds nuw %struct.uv_loop_s, ptr %22, i32 0, i32 30
  %24 = load ptr, ptr %3, align 8
  %25 = getelementptr inbounds nuw %struct.uv_loop_s, ptr %24, i32 0, i32 29
  %26 = getelementptr inbounds [2 x i32], ptr %25, i64 0, i64 0
  %27 = load i32, ptr %26, align 8
  call void @uv__io_init(ptr noundef %23, ptr noundef @uv__signal_event, i32 noundef %27)
  %28 = load ptr, ptr %3, align 8
  %29 = load ptr, ptr %3, align 8
  %30 = getelementptr inbounds nuw %struct.uv_loop_s, ptr %29, i32 0, i32 30
  call void @uv__io_start(ptr noundef %28, ptr noundef %30, i32 noundef 1)
  store i32 0, ptr %2, align 4
  store i32 1, ptr %5, align 4
  br label %31

31:                                               ; preds = %21, %19, %11
  call void @llvm.lifetime.end.p0(i64 4, ptr %4) #9
  %32 = load i32, ptr %2, align 4
  ret i32 %32
}

; Function Attrs: nounwind uwtable
define dso_local i32 @uv_signal_init(ptr noundef %0, ptr noundef %1) #0 {
  %3 = alloca i32, align 4
  %4 = alloca ptr, align 8
  %5 = alloca ptr, align 8
  %6 = alloca i32, align 4
  %7 = alloca i32, align 4
  store ptr %0, ptr %4, align 8
  store ptr %1, ptr %5, align 8
  call void @llvm.lifetime.start.p0(i64 4, ptr %6) #9
  %8 = load ptr, ptr %4, align 8
  %9 = call i32 @uv__signal_loop_once_init(ptr noundef %8)
  store i32 %9, ptr %6, align 4
  %10 = load i32, ptr %6, align 4
  %11 = icmp ne i32 %10, 0
  br i1 %11, label %12, label %14

12:                                               ; preds = %2
  %13 = load i32, ptr %6, align 4
  store i32 %13, ptr %3, align 4
  store i32 1, ptr %7, align 4
  br label %37

14:                                               ; preds = %2
  br label %15

15:                                               ; preds = %14
  %16 = load ptr, ptr %4, align 8
  %17 = load ptr, ptr %5, align 8
  %18 = getelementptr inbounds nuw %struct.uv_handle_s, ptr %17, i32 0, i32 1
  store ptr %16, ptr %18, align 8
  %19 = load ptr, ptr %5, align 8
  %20 = getelementptr inbounds nuw %struct.uv_handle_s, ptr %19, i32 0, i32 2
  store i32 16, ptr %20, align 8
  %21 = load ptr, ptr %5, align 8
  %22 = getelementptr inbounds nuw %struct.uv_handle_s, ptr %21, i32 0, i32 7
  store i32 8, ptr %22, align 8
  %23 = load ptr, ptr %4, align 8
  %24 = getelementptr inbounds nuw %struct.uv_loop_s, ptr %23, i32 0, i32 2
  %25 = load ptr, ptr %5, align 8
  %26 = getelementptr inbounds nuw %struct.uv_handle_s, ptr %25, i32 0, i32 4
  call void @uv__queue_insert_tail(ptr noundef %24, ptr noundef %26)
  %27 = load ptr, ptr %5, align 8
  %28 = getelementptr inbounds nuw %struct.uv_handle_s, ptr %27, i32 0, i32 6
  store ptr null, ptr %28, align 8
  br label %29

29:                                               ; preds = %15
  br label %30

30:                                               ; preds = %29
  %31 = load ptr, ptr %5, align 8
  %32 = getelementptr inbounds nuw %struct.uv_signal_s, ptr %31, i32 0, i32 9
  store i32 0, ptr %32, align 8
  %33 = load ptr, ptr %5, align 8
  %34 = getelementptr inbounds nuw %struct.uv_signal_s, ptr %33, i32 0, i32 11
  store i32 0, ptr %34, align 8
  %35 = load ptr, ptr %5, align 8
  %36 = getelementptr inbounds nuw %struct.uv_signal_s, ptr %35, i32 0, i32 12
  store i32 0, ptr %36, align 4
  store i32 0, ptr %3, align 4
  store i32 1, ptr %7, align 4
  br label %37

37:                                               ; preds = %30, %12
  call void @llvm.lifetime.end.p0(i64 4, ptr %6) #9
  %38 = load i32, ptr %3, align 4
  ret i32 %38
}