; Function Attrs: nounwind uwtable
define dso_local i32 @uv_signal_init(ptr noundef %0, ptr noundef %1) local_unnamed_addr #0 {
  %3 = getelementptr inbounds nuw i8, ptr %0, i64 552
  %4 = load i32, ptr %3, align 8
  %.not.i = icmp eq i32 %4, -1
  br i1 %.not.i, label %5, label %10

5:                                                ; preds = %2
  %6 = tail call i32 @uv__make_pipe(ptr noundef nonnull %3, i32 noundef 64) #10
  %.not9.i = icmp eq i32 %6, 0
  br i1 %.not9.i, label %7, label %uv__signal_loop_once_init.exit

7:                                                ; preds = %5
  %8 = getelementptr inbounds nuw i8, ptr %0, i64 560
  %9 = load i32, ptr %3, align 8
  tail call void @uv__io_init(ptr noundef nonnull %8, ptr noundef nonnull @uv__signal_event, i32 noundef %9) #10
  tail call void @uv__io_start(ptr noundef nonnull %0, ptr noundef nonnull %8, i32 noundef 1) #10
  br label %10

10:                                               ; preds = %7, %2
  %11 = getelementptr inbounds nuw i8, ptr %1, i64 8
  store ptr %0, ptr %11, align 8
  %12 = getelementptr inbounds nuw i8, ptr %1, i64 16
  store i32 16, ptr %12, align 8
  %13 = getelementptr inbounds nuw i8, ptr %1, i64 88
  store i32 8, ptr %13, align 8
  %14 = getelementptr inbounds nuw i8, ptr %0, i64 16
  %15 = getelementptr inbounds nuw i8, ptr %1, i64 32
  store ptr %14, ptr %15, align 8
  %16 = getelementptr inbounds nuw i8, ptr %0, i64 24
  %17 = load ptr, ptr %16, align 8
  %18 = getelementptr inbounds nuw i8, ptr %1, i64 40
  store ptr %17, ptr %18, align 8
  store ptr %15, ptr %17, align 8
  store ptr %15, ptr %16, align 8
  %19 = getelementptr inbounds nuw i8, ptr %1, i64 80
  store ptr null, ptr %19, align 8
  %20 = getelementptr inbounds nuw i8, ptr %1, i64 104
  store i32 0, ptr %20, align 8
  %21 = getelementptr inbounds nuw i8, ptr %1, i64 144
  store i32 0, ptr %21, align 8
  %22 = getelementptr inbounds nuw i8, ptr %1, i64 148
  store i32 0, ptr %22, align 4
  br label %uv__signal_loop_once_init.exit

uv__signal_loop_once_init.exit:                   ; preds = %5, %10
  %.0 = phi i32 [ 0, %10 ], [ %6, %5 ]
  ret i32 %.0
}